target datalayout = "e-m:e-p270:32:32-p271:32:32-p272:64:64-i64:64-i128:128-f80:128-n8:16:32:64-S128"
target triple = "x86_64-pc-linux-gnu"

%struct.GENERAL_NAME_st = type { i32, %union.anon.1 }
%union.anon.1 = type { ptr }

; Function Attrs: inlinehint nounwind uwtable
define internal ptr @ossl_check_const_GENERAL_NAME_sk_type(ptr noundef %0) #3 {
  %2 = alloca ptr, align 8
  store ptr %0, ptr %2, align 8, !tbaa !119
  %3 = load ptr, ptr %2, align 8, !tbaa !119
  ret ptr %3
}

; Function Attrs: nounwind uwtable
define internal i32 @ts_find_name(ptr noundef %0, ptr noundef %1) #0 {
  %3 = alloca ptr, align 8
  %4 = alloca ptr, align 8
  %5 = alloca i32, align 4
  %6 = alloca i32, align 4
  %7 = alloca ptr, align 8
  store ptr %0, ptr %3, align 8, !tbaa !119
  store ptr %1, ptr %4, align 8, !tbaa !77
  call void @llvm.lifetime.start.p0(i64 4, ptr %5) #7
  call void @llvm.lifetime.start.p0(i64 4, ptr %6) #7
  store i32 0, ptr %5, align 4, !tbaa !16
  store i32 0, ptr %6, align 4, !tbaa !16
  br label %8

8:                                                ; preds = %29, %2
  %9 = load i32, ptr %6, align 4, !tbaa !16
  %10 = icmp ne i32 %9, 0
  br i1 %10, label %17, label %11

11:                                               ; preds = %8
  %12 = load i32, ptr %5, align 4, !tbaa !16
  %13 = load ptr, ptr %3, align 8, !tbaa !119
  %14 = call ptr @ossl_check_const_GENERAL_NAME_sk_type(ptr noundef %13)
  %15 = call i32 @OPENSSL_sk_num(ptr noundef %14)
  %16 = icmp slt i32 %12, %15
  br label %17

17:                                               ; preds = %11, %8
  %18 = phi i1 [ false, %8 ], [ %16, %11 ]
  br i1 %18, label %19, label %32

19:                                               ; preds = %17
  call void @llvm.lifetime.start.p0(i64 8, ptr %7) #7
  %20 = load ptr, ptr %3, align 8, !tbaa !119
  %21 = call ptr @ossl_check_const_GENERAL_NAME_sk_type(ptr noundef %20)
  %22 = load i32, ptr %5, align 4, !tbaa !16
  %23 = call ptr @OPENSSL_sk_value(ptr noundef %21, i32 noundef %22)
  store ptr %23, ptr %7, align 8, !tbaa !77
  %24 = load ptr, ptr %7, align 8, !tbaa !77
  %25 = load ptr, ptr %4, align 8, !tbaa !77
  %26 = call i32 @GENERAL_NAME_cmp(ptr noundef %24, ptr noundef %25)
  %27 = icmp eq i32 %26, 0
  %28 = zext i1 %27 to i32
  store i32 %28, ptr %6, align 4, !tbaa !16
  call void @llvm.lifetime.end.p0(i64 8, ptr %7) #7
  br label %29

29:                                               ; preds = %19
  %30 = load i32, ptr %5, align 4, !tbaa !16
  %31 = add nsw i32 %30, 1
  store i32 %31, ptr %5, align 4, !tbaa !16
  br label %8, !llvm.loop !124

32:                                               ; preds = %17
  %33 = load i32, ptr %6, align 4, !tbaa !16
  %34 = icmp ne i32 %33, 0
  br i1 %34, label %35, label %38

35:                                               ; preds = %32
  %36 = load i32, ptr %5, align 4, !tbaa !16
  %37 = sub nsw i32 %36, 1
  br label %39

38:                                               ; preds = %32
  br label %39

39:                                               ; preds = %38, %35
  %40 = phi i32 [ %37, %35 ], [ -1, %38 ]
  call void @llvm.lifetime.end.p0(i64 4, ptr %6) #7
  call void @llvm.lifetime.end.p0(i64 4, ptr %5) #7
  ret i32 %40
}

; Function Attrs: nounwind uwtable
define internal i32 @ts_check_signer_name(ptr noundef %0, ptr noundef %1) #0 {
  %3 = alloca i32, align 4
  %4 = alloca ptr, align 8
  %5 = alloca ptr, align 8
  %6 = alloca ptr, align 8
  %7 = alloca i32, align 4
  %8 = alloca i32, align 4
  %9 = alloca i32, align 4
  store ptr %0, ptr %4, align 8, !tbaa !77
  store ptr %1, ptr %5, align 8, !tbaa !29
  call void @llvm.lifetime.start.p0(i64 8, ptr %6) #7
  store ptr null, ptr %6, align 8, !tbaa !119
  call void @llvm.lifetime.start.p0(i64 4, ptr %7) #7
  store i32 -1, ptr %7, align 4, !tbaa !16
  call void @llvm.lifetime.start.p0(i64 4, ptr %8) #7
  store i32 0, ptr %8, align 4, !tbaa !16
  %10 = load ptr, ptr %4, align 8, !tbaa !77
  %11 = getelementptr inbounds nuw %struct.GENERAL_NAME_st, ptr %10, i32 0, i32 0
  %12 = load i32, ptr %11, align 8, !tbaa !121
  %13 = icmp eq i32 %12, 4
  br i1 %13, label %14, label %23

14:                                               ; preds = %2
  %15 = load ptr, ptr %4, align 8, !tbaa !77
  %16 = getelementptr inbounds nuw %struct.GENERAL_NAME_st, ptr %15, i32 0, i32 1
  %17 = load ptr, ptr %16, align 8, !tbaa !31
  %18 = load ptr, ptr %5, align 8, !tbaa !29
  %19 = call ptr @X509_get_subject_name(ptr noundef %18)
  %20 = call i32 @X509_NAME_cmp(ptr noundef %17, ptr noundef %19)
  %21 = icmp eq i32 %20, 0
  br i1 %21, label %22, label %23

22:                                               ; preds = %14
  store i32 1, ptr %3, align 4
  store i32 1, ptr %9, align 4
  br label %45

23:                                               ; preds = %14, %2
  %24 = load ptr, ptr %5, align 8, !tbaa !29
  %25 = call ptr @X509_get_ext_d2i(ptr noundef %24, i32 noundef 85, ptr noundef null, ptr noundef %7)
  store ptr %25, ptr %6, align 8, !tbaa !119
  br label %26

26:                                               ; preds = %38, %23
  %27 = load ptr, ptr %6, align 8, !tbaa !119
  %28 = icmp ne ptr %27, null
  br i1 %28, label %29, label %42

29:                                               ; preds = %26
  %30 = load ptr, ptr %6, align 8, !tbaa !119
  %31 = load ptr, ptr %4, align 8, !tbaa !77
  %32 = call i32 @ts_find_name(ptr noundef %30, ptr noundef %31)
  %33 = icmp sge i32 %32, 0
  %34 = zext i1 %33 to i32
  store i32 %34, ptr %8, align 4, !tbaa !16
  %35 = load i32, ptr %8, align 4, !tbaa !16
  %36 = icmp ne i32 %35, 0
  br i1 %36, label %37, label %38

37:                                               ; preds = %29
  br label %42

38:                                               ; preds = %29
  %39 = load ptr, ptr %6, align 8, !tbaa !119
  call void @GENERAL_NAMES_free(ptr noundef %39)
  %40 = load ptr, ptr %5, align 8, !tbaa !29
  %41 = call ptr @X509_get_ext_d2i(ptr noundef %40, i32 noundef 85, ptr noundef null, ptr noundef %7)
  store ptr %41, ptr %6, align 8, !tbaa !119
  br label %26, !llvm.loop !123

42:                                               ; preds = %37, %26
  %43 = load ptr, ptr %6, align 8, !tbaa !119
  call void @GENERAL_NAMES_free(ptr noundef %43)
  %44 = load i32, ptr %8, align 4, !tbaa !16
  store i32 %44, ptr %3, align 4
  store i32 1, ptr %9, align 4
  br label %45

45:                                               ; preds = %42, %22
  call void @llvm.lifetime.end.p0(i64 4, ptr %8) #7
  call void @llvm.lifetime.end.p0(i64 4, ptr %7) #7
  call void @llvm.lifetime.end.p0(i64 8, ptr %6) #7
  %46 = load i32, ptr %3, align 4
  ret i32 %46
}