; Function Attrs: nounwind uwtable
define internal fastcc range(i32 0, 2) i32 @ts_check_signer_name(ptr noundef %0, ptr noundef %1) unnamed_addr #0 {
  %3 = alloca i32, align 4
  call void @llvm.lifetime.start.p0(i64 4, ptr nonnull %3) #7
  store i32 -1, ptr %3, align 4, !tbaa !78
  %4 = load i32, ptr %0, align 8, !tbaa !79
  %5 = icmp eq i32 %4, 4
  br i1 %5, label %6, label %12

6:                                                ; preds = %2
  %7 = getelementptr inbounds nuw i8, ptr %0, i64 8
  %8 = load ptr, ptr %7, align 8, !tbaa !14
  %9 = tail call ptr @X509_get_subject_name(ptr noundef %1) #7
  %10 = tail call i32 @X509_NAME_cmp(ptr noundef %8, ptr noundef %9) #7
  %11 = icmp eq i32 %10, 0
  br i1 %11, label %21, label %12

12:                                               ; preds = %6, %2
  %13 = call ptr @X509_get_ext_d2i(ptr noundef %1, i32 noundef 85, ptr noundef null, ptr noundef nonnull %3) #7
  %.not18 = icmp eq ptr %13, null
  br i1 %.not18, label %ts_find_name.exit, label %.preheader

.preheader:                                       ; preds = %12, %ts_find_name.exit.thread
  %.01219 = phi ptr [ %20, %ts_find_name.exit.thread ], [ %13, %12 ]
  br label %14

14:                                               ; preds = %.preheader, %16
  %.011.i = phi i32 [ %19, %16 ], [ 0, %.preheader ]
  %15 = call i32 @OPENSSL_sk_num(ptr noundef nonnull %.01219) #7
  %.not12.i = icmp slt i32 %.011.i, %15
  br i1 %.not12.i, label %16, label %ts_find_name.exit.thread

16:                                               ; preds = %14
  %17 = call ptr @OPENSSL_sk_value(ptr noundef nonnull %.01219, i32 noundef %.011.i) #7
  %18 = call i32 @GENERAL_NAME_cmp(ptr noundef %17, ptr noundef nonnull %0) #7
  %.not.i = icmp eq i32 %18, 0
  %19 = add nuw nsw i32 %.011.i, 1
  br i1 %.not.i, label %ts_find_name.exit, label %14, !llvm.loop !81

ts_find_name.exit.thread:                         ; preds = %14
  call void @GENERAL_NAMES_free(ptr noundef nonnull %.01219) #7
  %20 = call ptr @X509_get_ext_d2i(ptr noundef %1, i32 noundef 85, ptr noundef null, ptr noundef nonnull %3) #7
  %.not = icmp eq ptr %20, null
  br i1 %.not, label %ts_find_name.exit, label %.preheader, !llvm.loop !82

ts_find_name.exit:                                ; preds = %ts_find_name.exit.thread, %16, %12
  %.01217 = phi ptr [ null, %12 ], [ %.01219, %16 ], [ null, %ts_find_name.exit.thread ]
  %.1 = phi i32 [ 0, %12 ], [ 1, %16 ], [ 0, %ts_find_name.exit.thread ]
  call void @GENERAL_NAMES_free(ptr noundef %.01217) #7
  br label %21

21:                                               ; preds = %6, %ts_find_name.exit
  %.013 = phi i32 [ %.1, %ts_find_name.exit ], [ 1, %6 ]
  call void @llvm.lifetime.end.p0(i64 4, ptr nonnull %3) #7
  ret i32 %.013
}